; Function Attrs: nofree norecurse nosync nounwind memory(argmem: readwrite) uwtable
define internal void @avg_h264_chroma_mc1_8_c(ptr noundef captures(none) %0, ptr noundef readonly captures(none) %1, i64 noundef %2, i32 noundef %3, i32 noundef %4, i32 noundef %5) #1 {
  %7 = sub nsw i32 8, %4
  %8 = sub nsw i32 8, %5
  %9 = mul nsw i32 %8, %7
  %10 = mul nsw i32 %8, %4
  %11 = mul nsw i32 %7, %5
  %12 = mul nsw i32 %5, %4
  %.not = icmp eq i32 %12, 0
  br i1 %.not, label %42, label %.preheader72

.preheader72:                                     ; preds = %6
  %13 = icmp sgt i32 %3, 0
  br i1 %13, label %.lr.ph, label %.loopexit

.lr.ph:                                           ; preds = %.preheader72, %.lr.ph
  %.076 = phi ptr [ %40, %.lr.ph ], [ %0, %.preheader72 ]
  %.06175 = phi i32 [ %41, %.lr.ph ], [ 0, %.preheader72 ]
  %.06474 = phi ptr [ %23, %.lr.ph ], [ %1, %.preheader72 ]
  %14 = load i8, ptr %.076, align 1, !tbaa !35
  %15 = zext i8 %14 to i32
  %16 = load i8, ptr %.06474, align 1, !tbaa !35
  %17 = zext i8 %16 to i32
  %18 = mul nsw i32 %9, %17
  %19 = getelementptr inbounds nuw i8, ptr %.06474, i64 1
  %20 = load i8, ptr %19, align 1, !tbaa !35
  %21 = zext i8 %20 to i32
  %22 = mul nsw i32 %10, %21
  %23 = getelementptr inbounds i8, ptr %.06474, i64 %2
  %24 = load i8, ptr %23, align 1, !tbaa !35
  %25 = zext i8 %24 to i32
  %26 = mul nsw i32 %11, %25
  %27 = getelementptr i8, ptr %23, i64 1
  %28 = load i8, ptr %27, align 1, !tbaa !35
  %29 = zext i8 %28 to i32
  %30 = mul nsw i32 %12, %29
  %31 = add i32 %18, 32
  %32 = add i32 %31, %22
  %33 = add i32 %32, %26
  %34 = add i32 %33, %30
  %35 = lshr i32 %34, 6
  %36 = add nuw nsw i32 %15, 1
  %37 = add nuw nsw i32 %36, %35
  %38 = lshr i32 %37, 1
  %39 = trunc i32 %38 to i8
  store i8 %39, ptr %.076, align 1, !tbaa !35
  %40 = getelementptr inbounds i8, ptr %.076, i64 %2
  %41 = add nuw nsw i32 %.06175, 1
  %exitcond.not = icmp eq i32 %41, %3
  br i1 %exitcond.not, label %.loopexit, label %.lr.ph, !llvm.loop !57

42:                                               ; preds = %6
  %43 = add nsw i32 %10, %11
  %.not69 = icmp eq i32 %43, 0
  %44 = icmp sgt i32 %3, 0
  br i1 %.not69, label %.preheader, label %45

.preheader:                                       ; preds = %42
  br i1 %44, label %.lr.ph84, label %.loopexit

45:                                               ; preds = %42
  br i1 %44, label %.lr.ph80, label %.loopexit

.lr.ph80:                                         ; preds = %45
  %.not70 = icmp eq i32 %11, 0
  %46 = shl i64 %2, 32
  %47 = ashr exact i64 %46, 32
  %48 = select i1 %.not70, i64 1, i64 %47
  br label %49

49:                                               ; preds = %.lr.ph80, %49
  %.179 = phi ptr [ %0, %.lr.ph80 ], [ %66, %49 ]
  %.16278 = phi i32 [ 0, %.lr.ph80 ], [ %68, %49 ]
  %.16577 = phi ptr [ %1, %.lr.ph80 ], [ %67, %49 ]
  %50 = load i8, ptr %.179, align 1, !tbaa !35
  %51 = zext i8 %50 to i32
  %52 = load i8, ptr %.16577, align 1, !tbaa !35
  %53 = zext i8 %52 to i32
  %54 = mul nsw i32 %9, %53
  %55 = getelementptr inbounds i8, ptr %.16577, i64 %48
  %56 = load i8, ptr %55, align 1, !tbaa !35
  %57 = zext i8 %56 to i32
  %58 = mul nsw i32 %43, %57
  %59 = add i32 %54, 32
  %60 = add i32 %59, %58
  %61 = lshr i32 %60, 6
  %62 = add nuw nsw i32 %51, 1
  %63 = add nuw nsw i32 %62, %61
  %64 = lshr i32 %63, 1
  %65 = trunc i32 %64 to i8
  store i8 %65, ptr %.179, align 1, !tbaa !35
  %66 = getelementptr inbounds i8, ptr %.179, i64 %2
  %67 = getelementptr inbounds i8, ptr %.16577, i64 %2
  %68 = add nuw nsw i32 %.16278, 1
  %exitcond87.not = icmp eq i32 %68, %3
  br i1 %exitcond87.not, label %.loopexit, label %49, !llvm.loop !58

.lr.ph84:                                         ; preds = %.preheader, %.lr.ph84
  %.283 = phi ptr [ %80, %.lr.ph84 ], [ %0, %.preheader ]
  %.26382 = phi i32 [ %82, %.lr.ph84 ], [ 0, %.preheader ]
  %.26681 = phi ptr [ %81, %.lr.ph84 ], [ %1, %.preheader ]
  %69 = load i8, ptr %.283, align 1, !tbaa !35
  %70 = zext i8 %69 to i32
  %71 = load i8, ptr %.26681, align 1, !tbaa !35
  %72 = zext i8 %71 to i32
  %73 = mul nsw i32 %9, %72
  %74 = add nsw i32 %73, 32
  %75 = lshr i32 %74, 6
  %76 = add nuw nsw i32 %70, 1
  %77 = add nuw nsw i32 %76, %75
  %78 = lshr i32 %77, 1
  %79 = trunc i32 %78 to i8
  store i8 %79, ptr %.283, align 1, !tbaa !35
  %80 = getelementptr inbounds i8, ptr %.283, i64 %2
  %81 = getelementptr inbounds i8, ptr %.26681, i64 %2
  %82 = add nuw nsw i32 %.26382, 1
  %exitcond88.not = icmp eq i32 %82, %3
  br i1 %exitcond88.not, label %.loopexit, label %.lr.ph84, !llvm.loop !59

.loopexit:                                        ; preds = %.lr.ph, %49, %.lr.ph84, %.preheader72, %45, %.preheader
  ret void
}